EXPORTS
    _ZN11DrawOptionsC1Ev @1
    _ZN11DrawOptionsC2Ev @2
    _ZN11DrawOptionsD0Ev @3
    _ZN11DrawOptionsD1Ev @4
    _ZN11DrawOptionsD2Ev @5
    _ZN12MeasureValue15get_descriptionEv @6
    _ZN12MeasureValue8get_nameEv @7
    _ZN12MeasureValue9get_valueEv @8
    _ZN12MeasureValue9set_valueEd @9
    _ZN12MeasureValueC1EN4Glib7ustringES1_d @10
    _ZN12MeasureValueC1ERKS_ @11
    _ZN12MeasureValueC2EN4Glib7ustringES1_d @12
    _ZN12MeasureValueC2ERKS_ @13
    _ZN12MeasureValueD0Ev @14
    _ZN12MeasureValueD1Ev @15
    _ZN12MeasureValueD2Ev @16
    _ZN12PatternError14get_error_codeEv @17
    _ZN12PatternError15get_object_nameEv @18
    _ZN12PatternError15get_object_typeEv @19
    _ZN12PatternError17get_error_messageEv @20
    _ZN12PatternErrorC1EN4Glib7ustringES1_10ObjectType9ErrorCode @21
    _ZN12PatternErrorC1EN4Glib7ustringES1_10ObjectTypeS1_ @22
    _ZN12PatternErrorC1Ev @23
    _ZN12PatternErrorC2EN4Glib7ustringES1_10ObjectType9ErrorCode @24
    _ZN12PatternErrorC2EN4Glib7ustringES1_10ObjectTypeS1_ @25
    _ZN12PatternErrorC2Ev @26
    _ZN12PatternErrorD0Ev @27
    _ZN12PatternErrorD1Ev @28
    _ZN12PatternErrorD2Ev @29
    _ZN13BezierComplex10get_lengthEv @30
    _ZN13BezierComplex14get_coordinateEf @31
    _ZN13BezierComplex4drawESt10shared_ptrIN5Cairo7ContextEES0_I11DrawOptionsE @32
    _ZN13BezierComplexC1ERKS_ @33
    _ZN13BezierComplexC1ESt4listI6BezierSaIS1_EE @34
    _ZN13BezierComplexC2ESt4listI6BezierSaIS1_EE @35
    _ZN13BezierComplexD0Ev @36
    _ZN13BezierComplexD1Ev @37
    _ZN13BezierComplexD2Ev @38
    _ZN13PaperSettingsC1Ev @39
    _ZN13PaperSettingsC2Ev @40
    _ZN13PaperSettingsD0Ev @41
    _ZN13PaperSettingsD1Ev @42
    _ZN13PaperSettingsD2Ev @43
    _ZN13PatternObjectC1E10ObjectTypeN4Glib7ustringE @44
    _ZN13PatternObjectC2E10ObjectTypeN4Glib7ustringE @45
    _ZN13PatternObjectD0Ev @46
    _ZN13PatternObjectD1Ev @47
    _ZN13PatternObjectD2Ev @48
    _ZN14PartDefinition14evaluate_curveEN4Glib7ustringESt10shared_ptrISt4listI13PatternObjectSaIS4_EEES2_IS3_I5PointSaIS8_EEES2_IS3_I13BezierComplexSaISC_EEE8MeasuresS3_I21PatternParameterValueSaISH_EE @49
    _ZN14PartDefinition17evaluate_landmarkEN4Glib7ustringESt10shared_ptrISt4listI13PatternObjectSaIS4_EEES2_IS3_I5PointSaIS8_EEES2_IS3_I13BezierComplexSaISC_EEE8MeasuresS3_I21PatternParameterValueSaISH_EE @50
    _ZN14PartDefinition8get_partE8MeasuresSt4listI21PatternParameterValueSaIS2_EE @51
    _ZN14PartDefinitionC1Ev @52
    _ZN14PartDefinitionC2Ev @53
    _ZN14PartDefinitionD0Ev @54
    _ZN14PartDefinitionD1Ev @55
    _ZN14PartDefinitionD2Ev @56
    _ZN15CurveDefinition12add_landmarkESt10shared_ptrI8LandmarkE @57
    _ZN15CurveDefinition18get_landmark_namesEv @58
    _ZN15CurveDefinition8get_nameEv @59
    _ZN15CurveDefinition8set_nameEN4Glib7ustringE @60
    _ZN15CurveDefinitionC2Ev @61
    _ZN15CurveDefinitionD0Ev @62
    _ZN15CurveDefinitionD1Ev @63
    _ZN15CurveDefinitionD2Ev @64
    _ZN16BezierDefinition10get_bezierESt4listI5PointSaIS1_EE @65
    _ZN16BezierDefinition17get_max_landmarksEv @66
    _ZN16BezierDefinition17get_min_landmarksEv @67
    _ZN16BezierDefinition7get_xmlEv @68
    _ZN16BezierDefinitionC1Ev @69
    _ZN16BezierDefinitionC2Ev @70
    _ZN16BezierDefinitionD0Ev @71
    _ZN16BezierDefinitionD1Ev @72
    _ZN16BezierDefinitionD2Ev @73
    _ZN16PatternParameter13create_objectEN4Glib7ustringES1_S1_ @74
    _ZN16PatternParameterC2Ev @75
    _ZN16PatternParameterD0Ev @76
    _ZN16PatternParameterD1Ev @77
    _ZN16PatternParameterD2Ev @78
    _ZN17PatternDefinitionC1Ev @79
    _ZN17PatternDefinitionC2Ev @80
    _ZN17PatternDefinitionD0Ev @81
    _ZN17PatternDefinitionD1Ev @82
    _ZN17PatternDefinitionD2Ev @83
    _ZN19IntPatternParameter17parse_value_rangeEN4Glib7ustringE @84
    _ZN19IntPatternParameterC1EN4Glib7ustringE @85
    _ZN19IntPatternParameterC1EN4Glib7ustringESt4listIiSaIiEE14ValueRangeType @86
    _ZN19IntPatternParameterC2EN4Glib7ustringE @87
    _ZN19IntPatternParameterC2EN4Glib7ustringESt4listIiSaIiEE14ValueRangeType @88
    _ZN19IntPatternParameterD0Ev @89
    _ZN19IntPatternParameterD1Ev @90
    _ZN19IntPatternParameterD2Ev @91
    _ZN21FloatPatternParameter17parse_value_rangeEN4Glib7ustringE @92
    _ZN21FloatPatternParameter7get_xmlEv @93
    _ZN21FloatPatternParameterC1EN4Glib7ustringE @94
    _ZN21FloatPatternParameterC1EN4Glib7ustringESt4listIfSaIfEE14ValueRangeType @95
    _ZN21FloatPatternParameterC2EN4Glib7ustringE @96
    _ZN21FloatPatternParameterC2EN4Glib7ustringESt4listIfSaIfEE14ValueRangeType @97
    _ZN21FloatPatternParameterD0Ev @98
    _ZN21FloatPatternParameterD1Ev @99
    _ZN21FloatPatternParameterD2Ev @100
    _ZN21PatternParameterValueC1Ev @101
    _ZN21PatternParameterValueC2Ev @102
    _ZN21PatternParameterValueD0Ev @103
    _ZN21PatternParameterValueD1Ev @104
    _ZN21PatternParameterValueD2Ev @105
    _ZN4GlibeqERKNS_7ustringES2_ @106
    _ZN4PartC1EN4Glib7ustringESt4listI5PointSaIS3_EES2_I13BezierComplexSaIS6_EE @107
    _ZN4PartC2EN4Glib7ustringESt4listI5PointSaIS3_EES2_I13BezierComplexSaIS6_EE @108
    _ZN4PartD0Ev @109
    _ZN4PartD1Ev @110
    _ZN4PartD2Ev @111
    _ZN4SizeC1Eff @112
    _ZN4SizeC1Ev @113
    _ZN4SizeC2Eff @114
    _ZN4SizeC2Ev @115
    _ZN4SizeD0Ev @116
    _ZN4SizeD1Ev @117
    _ZN4SizeD2Ev @118
    _ZN4UserC1Ev @119
    _ZN4UserC2Ev @120
    _ZN4UserD0Ev @121
    _ZN4UserD1Ev @122
    _ZN4UserD2Ev @123
    _ZN4sigc7signal2IbN4Glib7ustringE10ObjectTypeNS_3nilEEC1Ev @124
    _ZN4sigc7signal2IbN4Glib7ustringE10ObjectTypeNS_3nilEED1Ev @125
    _ZN4sigc8internal11signal_execC1EPKNS0_11signal_implE @126
    _ZN4sigc8internal11signal_execD1Ev @127
    _ZN4sigc8internal11signal_impl14reference_execEv @128
    _ZN4sigc8internal11signal_impl16unreference_execEv @129
    _ZN4sigc8internal11signal_implD1Ev @130
    _ZN4sigc8internal12signal_emit2IbN4Glib7ustringE10ObjectTypeNS_3nilEE4emitEPNS0_11signal_implERKS3_RKS4_ @131
    _ZN4sigc8internal14temp_slot_list3endEv @132
    _ZN4sigc8internal14temp_slot_list5beginEv @133
    _ZN4sigc8internal14temp_slot_listC1ERSt4listINS_9slot_baseESaIS3_EE @134
    _ZN4sigc8internal14temp_slot_listD1Ev @135
    _ZN5Point5get_xEv @136
    _ZN5Point5get_yEv @137
    _ZN5Point5set_xEf @138
    _ZN5Point5set_yEf @139
    _ZN5PointC1ERKS_ @140
    _ZN5PointC1Eff @141
    _ZN5PointC1Ev @142
    _ZN5PointC2Eff @143
    _ZN5PointC2Ev @144
    _ZN5PointD1Ev @145
    _ZN5PointaSERKS_ @146
    _ZN5PointdvERKf @147
    _ZN5PointmiERKS_ @148
    _ZN5PointmlERKf @149
    _ZN5PointplERKS_ @150
    _ZN6Bezier10get_lengthEv @151
    _ZN6Bezier12get_distanceE5Point @152
    _ZN6Bezier14get_coordinateEf @153
    _ZN6Bezier4drawESt10shared_ptrIN5Cairo7ContextEE @154
    _ZN6Bezier5binomEii @155
    _ZN6Bezier9bernsteinEfii @156
    _ZN6BezierC1ERKS_ @157
    _ZN6BezierC1ESt5arrayI5PointLj4EE @158
    _ZN6BezierC1Ev @159
    _ZN6BezierC2ESt5arrayI5PointLj4EE @160
    _ZN6BezierC2Ev @161
    _ZN6BezierD1Ev @162
    _ZN6BezieraSERKS_ @163
    _ZN7PatternC1Ev @164
    _ZN7PatternC2Ev @165
    _ZN7PatternD0Ev @166
    _ZN7PatternD1Ev @167
    _ZN7PatternD2Ev @168
    _ZN8LandmarkC1Ev @169
    _ZN8LandmarkC2Ev @170
    _ZN8LandmarkD0Ev @171
    _ZN8LandmarkD1Ev @172
    _ZN8LandmarkD2Ev @173
    _ZN8MeasuresC1Ev @174
    _ZN8MeasuresC2Ev @175
    _ZN8MeasuresD0Ev @176
    _ZN8MeasuresD1Ev @177
    _ZN8MeasuresD2Ev @178
    _ZN9__gnu_cxx13new_allocatorI6BezierEC2Ev @179
    _ZN9__gnu_cxx13new_allocatorI6BezierED2Ev @180
    _ZN9__gnu_cxx13new_allocatorISt10_List_nodeI13BezierComplexEE10deallocateEPS3_j @181
    _ZN9__gnu_cxx13new_allocatorISt10_List_nodeI13BezierComplexEE7destroyIS3_EEvPT_ @182
    _ZN9__gnu_cxx13new_allocatorISt10_List_nodeI13BezierComplexEE8allocateEjPKv @183
    _ZN9__gnu_cxx13new_allocatorISt10_List_nodeI13BezierComplexEE9constructIS3_IRKS2_EEEvPT_DpOT0_ @184
    _ZN9__gnu_cxx13new_allocatorISt10_List_nodeI13BezierComplexEEC2ERKS4_ @185
    _ZN9__gnu_cxx13new_allocatorISt10_List_nodeI13BezierComplexEEC2Ev @186
    _ZN9__gnu_cxx13new_allocatorISt10_List_nodeI13BezierComplexEED2Ev @187
    _ZN9__gnu_cxx13new_allocatorISt10_List_nodeI13PatternObjectEE10deallocateEPS3_j @188
    _ZN9__gnu_cxx13new_allocatorISt10_List_nodeI13PatternObjectEE8allocateEjPKv @189
    _ZN9__gnu_cxx13new_allocatorISt10_List_nodeI13PatternObjectEE9constructIS3_IS2_EEEvPT_DpOT0_ @190
    _ZN9__gnu_cxx13new_allocatorISt10_List_nodeI5PointEE10deallocateEPS3_j @191
    _ZN9__gnu_cxx13new_allocatorISt10_List_nodeI5PointEE7destroyIS3_EEvPT_ @192
    _ZN9__gnu_cxx13new_allocatorISt10_List_nodeI5PointEE8allocateEjPKv @193
    _ZN9__gnu_cxx13new_allocatorISt10_List_nodeI5PointEE9constructIS3_IRKS2_EEEvPT_DpOT0_ @194
    _ZN9__gnu_cxx13new_allocatorISt10_List_nodeI5PointEEC2ERKS4_ @195
    _ZN9__gnu_cxx13new_allocatorISt10_List_nodeI5PointEEC2Ev @196
    _ZN9__gnu_cxx13new_allocatorISt10_List_nodeI5PointEED2Ev @197
    _ZN9__gnu_cxx13new_allocatorISt10_List_nodeI6BezierEE10deallocateEPS3_j @198
    _ZN9__gnu_cxx13new_allocatorISt10_List_nodeI6BezierEE7destroyIS3_EEvPT_ @199
    _ZN9__gnu_cxx13new_allocatorISt10_List_nodeI6BezierEE8allocateEjPKv @200
    _ZN9__gnu_cxx13new_allocatorISt10_List_nodeI6BezierEE9constructIS3_IEEEvPT_DpOT0_ @201
    _ZN9__gnu_cxx13new_allocatorISt10_List_nodeI6BezierEE9constructIS3_IRKS2_EEEvPT_DpOT0_ @202
    _ZN9__gnu_cxx13new_allocatorISt10_List_nodeI6BezierEE9constructIS3_IS2_EEEvPT_DpOT0_ @203
    _ZN9__gnu_cxx13new_allocatorISt10_List_nodeI6BezierEEC2ERKS4_ @204
    _ZN9__gnu_cxx13new_allocatorISt10_List_nodeI6BezierEEC2Ev @205
    _ZN9__gnu_cxx13new_allocatorISt10_List_nodeI6BezierEED2Ev @206
    _ZN9__gnu_cxx13new_allocatorISt10_List_nodeIN4Glib7ustringEEE10deallocateEPS4_j @207
    _ZN9__gnu_cxx13new_allocatorISt10_List_nodeIN4Glib7ustringEEE7destroyIS4_EEvPT_ @208
    _ZN9__gnu_cxx13new_allocatorISt10_List_nodeIN4Glib7ustringEEE8allocateEjPKv @209
    _ZN9__gnu_cxx13new_allocatorISt10_List_nodeIN4Glib7ustringEEE9constructIS4_IEEEvPT_DpOT0_ @210
    _ZN9__gnu_cxx13new_allocatorISt10_List_nodeIN4Glib7ustringEEE9constructIS4_IS3_EEEvPT_DpOT0_ @211
    _ZN9__gnu_cxx13new_allocatorISt10_List_nodeIN4Glib7ustringEEEC2Ev @212
    _ZN9__gnu_cxx13new_allocatorISt10_List_nodeIN4Glib7ustringEEED2Ev @213
    _ZN9__gnu_cxx13new_allocatorISt10_List_nodeIN4sigc9slot_baseEEE10deallocateEPS4_j @214
    _ZN9__gnu_cxx13new_allocatorISt10_List_nodeIN4sigc9slot_baseEEE7destroyIS4_EEvPT_ @215
    _ZN9__gnu_cxx13new_allocatorISt10_List_nodeIN4sigc9slot_baseEEE8allocateEjPKv @216
    _ZN9__gnu_cxx13new_allocatorISt10_List_nodeIN4sigc9slot_baseEEE9constructIS4_IS3_EEEvPT_DpOT0_ @217
    _ZN9__gnu_cxx13new_allocatorISt10_List_nodeIN4sigc9slot_baseEEED2Ev @218
    _ZN9__gnu_cxx13new_allocatorISt10_List_nodeISt10shared_ptrI12MeasureValueEEE10deallocateEPS5_j @219
    _ZN9__gnu_cxx13new_allocatorISt10_List_nodeISt10shared_ptrI12MeasureValueEEE7destroyIS5_EEvPT_ @220
    _ZN9__gnu_cxx13new_allocatorISt10_List_nodeISt10shared_ptrI12MeasureValueEEEC2Ev @221
    _ZN9__gnu_cxx13new_allocatorISt10_List_nodeISt10shared_ptrI12MeasureValueEEED2Ev @222
    _ZN9__gnu_cxx13new_allocatorISt10_List_nodeISt10shared_ptrI8LandmarkEEE10deallocateEPS5_j @223
    _ZN9__gnu_cxx13new_allocatorISt10_List_nodeISt10shared_ptrI8LandmarkEEE7destroyIS5_EEvPT_ @224
    _ZN9__gnu_cxx13new_allocatorISt10_List_nodeISt10shared_ptrI8LandmarkEEE8allocateEjPKv @225
    _ZN9__gnu_cxx13new_allocatorISt10_List_nodeISt10shared_ptrI8LandmarkEEE9constructIS5_IRKS4_EEEvPT_DpOT0_ @226
    _ZN9__gnu_cxx13new_allocatorISt10_List_nodeISt10shared_ptrI8LandmarkEEEC2Ev @227
    _ZN9__gnu_cxx13new_allocatorISt10_List_nodeISt10shared_ptrI8LandmarkEEED2Ev @228
    _ZN9__gnu_cxx13new_allocatorISt10_List_nodeIfEE10deallocateEPS2_j @229
    _ZN9__gnu_cxx13new_allocatorISt10_List_nodeIfEE7destroyIS2_EEvPT_ @230
    _ZN9__gnu_cxx13new_allocatorISt10_List_nodeIfEE8allocateEjPKv @231
    _ZN9__gnu_cxx13new_allocatorISt10_List_nodeIfEE9constructIS2_IRKfEEEvPT_DpOT0_ @232
    _ZN9__gnu_cxx13new_allocatorISt10_List_nodeIfEEC2ERKS3_ @233
    _ZN9__gnu_cxx13new_allocatorISt10_List_nodeIfEEC2Ev @234
    _ZN9__gnu_cxx13new_allocatorISt10_List_nodeIfEED2Ev @235
    _ZN9__gnu_cxx13new_allocatorISt10_List_nodeIiEE10deallocateEPS2_j @236
    _ZN9__gnu_cxx13new_allocatorISt10_List_nodeIiEE7destroyIS2_EEvPT_ @237
    _ZN9__gnu_cxx13new_allocatorISt10_List_nodeIiEE8allocateEjPKv @238
    _ZN9__gnu_cxx13new_allocatorISt10_List_nodeIiEE9constructIS2_IRKiEEEvPT_DpOT0_ @239
    _ZN9__gnu_cxx13new_allocatorISt10_List_nodeIiEEC2ERKS3_ @240
    _ZN9__gnu_cxx13new_allocatorISt10_List_nodeIiEEC2Ev @241
    _ZN9__gnu_cxx13new_allocatorISt10_List_nodeIiEED2Ev @242
    _ZN9__gnu_cxx13new_allocatorIfEC2Ev @243
    _ZN9__gnu_cxx13new_allocatorIfED2Ev @244
    _ZN9__gnu_cxx13new_allocatorIiEC2Ev @245
    _ZN9__gnu_cxx13new_allocatorIiED2Ev @246
    _ZNK4Glib7ustring6substrEjj @247
    _ZNK4sigc7signal2IbN4Glib7ustringE10ObjectTypeNS_3nilEE4emitERKS2_RKS3_ @248
    _ZNK4sigc9slot_base5emptyEv @249
    _ZNK4sigc9slot_base7blockedEv @250
    _ZNK9__gnu_cxx13new_allocatorISt10_List_nodeI13BezierComplexEE8max_sizeEv @251
    _ZNK9__gnu_cxx13new_allocatorISt10_List_nodeI13PatternObjectEE8max_sizeEv @252
    _ZNK9__gnu_cxx13new_allocatorISt10_List_nodeI5PointEE8max_sizeEv @253
    _ZNK9__gnu_cxx13new_allocatorISt10_List_nodeI6BezierEE8max_sizeEv @254
    _ZNK9__gnu_cxx13new_allocatorISt10_List_nodeIN4Glib7ustringEEE8max_sizeEv @255
    _ZNK9__gnu_cxx13new_allocatorISt10_List_nodeIN4sigc9slot_baseEEE8max_sizeEv @256
    _ZNK9__gnu_cxx13new_allocatorISt10_List_nodeISt10shared_ptrI8LandmarkEEE8max_sizeEv @257
    _ZNK9__gnu_cxx13new_allocatorISt10_List_nodeIfEE8max_sizeEv @258
    _ZNK9__gnu_cxx13new_allocatorISt10_List_nodeIiEE8max_sizeEv @259
    _ZNKSt10_List_baseI13BezierComplexSaIS0_EE21_M_get_Node_allocatorEv @260
    _ZNKSt10_List_baseI5PointSaIS0_EE21_M_get_Node_allocatorEv @261
    _ZNKSt10_List_baseI6BezierSaIS0_EE13get_allocatorEv @262
    _ZNKSt10_List_baseI6BezierSaIS0_EE21_M_get_Node_allocatorEv @263
    _ZNKSt10_List_baseIfSaIfEE13get_allocatorEv @264
    _ZNKSt10_List_baseIfSaIfEE21_M_get_Node_allocatorEv @265
    _ZNKSt10_List_baseIiSaIiEE13get_allocatorEv @266
    _ZNKSt10_List_baseIiSaIiEE21_M_get_Node_allocatorEv @267
    _ZNKSt12__shared_ptrI15CurveDefinitionLN9__gnu_cxx12_Lock_policyE1EEptEv @268
    _ZNKSt12__shared_ptrI8LandmarkLN9__gnu_cxx12_Lock_policyE1EEptEv @269
    _ZNKSt12__shared_ptrIN5Cairo7ContextELN9__gnu_cxx12_Lock_policyE1EEptEv @270
    _ZNKSt12__shared_ptrISt4listI13BezierComplexSaIS1_EELN9__gnu_cxx12_Lock_policyE1EEptEv @271
    _ZNKSt12__shared_ptrISt4listI13PatternObjectSaIS1_EELN9__gnu_cxx12_Lock_policyE1EEptEv @272
    _ZNKSt12__shared_ptrISt4listI5PointSaIS1_EELN9__gnu_cxx12_Lock_policyE1EEptEv @273
    _ZNKSt14_List_iteratorI13BezierComplexEneERKS1_ @274
    _ZNKSt14_List_iteratorI13BezierComplexEptEv @275
    _ZNKSt14_List_iteratorI13PatternObjectEeqERKS1_ @276
    _ZNKSt14_List_iteratorI13PatternObjectEneERKS1_ @277
    _ZNKSt14_List_iteratorI13PatternObjectEptEv @278
    _ZNKSt14_List_iteratorI5PointEdeEv @279
    _ZNKSt14_List_iteratorI5PointEeqERKS1_ @280
    _ZNKSt14_List_iteratorI5PointEneERKS1_ @281
    _ZNKSt14_List_iteratorI5PointEptEv @282
    _ZNKSt14_List_iteratorI6BezierEdeEv @283
    _ZNKSt14_List_iteratorI6BezierEneERKS1_ @284
    _ZNKSt14_List_iteratorISt10shared_ptrI8LandmarkEEdeEv @285
    _ZNKSt14_List_iteratorISt10shared_ptrI8LandmarkEEneERKS3_ @286
    _ZNKSt14_List_iteratorIfEdeEv @287
    _ZNKSt14_List_iteratorIfEneERKS0_ @288
    _ZNKSt14_List_iteratorIiEdeEv @289
    _ZNKSt14_List_iteratorIiEneERKS0_ @290
    _ZNKSt20_List_const_iteratorI13BezierComplexEdeEv @291
    _ZNKSt20_List_const_iteratorI13BezierComplexEneERKS1_ @292
    _ZNKSt20_List_const_iteratorI5PointEdeEv @293
    _ZNKSt20_List_const_iteratorI5PointEneERKS1_ @294
    _ZNKSt20_List_const_iteratorI6BezierEdeEv @295
    _ZNKSt20_List_const_iteratorI6BezierEeqERKS1_ @296
    _ZNKSt20_List_const_iteratorI6BezierEneERKS1_ @297
    _ZNKSt20_List_const_iteratorIN4sigc9slot_baseEEeqERKS2_ @298
    _ZNKSt20_List_const_iteratorIN4sigc9slot_baseEEneERKS2_ @299
    _ZNKSt20_List_const_iteratorIN4sigc9slot_baseEEptEv @300
    _ZNKSt20_List_const_iteratorIfEdeEv @301
    _ZNKSt20_List_const_iteratorIfEeqERKS0_ @302
    _ZNKSt20_List_const_iteratorIfEneERKS0_ @303
    _ZNKSt20_List_const_iteratorIiEdeEv @304
    _ZNKSt20_List_const_iteratorIiEeqERKS0_ @305
    _ZNKSt20_List_const_iteratorIiEneERKS0_ @306
    _ZNKSt4listI13BezierComplexSaIS0_EE3endEv @307
    _ZNKSt4listI13BezierComplexSaIS0_EE5beginEv @308
    _ZNKSt4listI5PointSaIS0_EE3endEv @309
    _ZNKSt4listI5PointSaIS0_EE5beginEv @310
    _ZNKSt4listI6BezierSaIS0_EE13get_allocatorEv @311
    _ZNKSt4listI6BezierSaIS0_EE3endEv @312
    _ZNKSt4listI6BezierSaIS0_EE4sizeEv @313
    _ZNKSt4listI6BezierSaIS0_EE5beginEv @314
    _ZNKSt4listI6BezierSaIS0_EE5emptyEv @315
    _ZNKSt4listIN4sigc9slot_baseESaIS1_EE5emptyEv @316
    _ZNKSt4listISt10shared_ptrI8LandmarkESaIS2_EE4sizeEv @317
    _ZNKSt4listIfSaIfEE13get_allocatorEv @318
    _ZNKSt4listIfSaIfEE3endEv @319
    _ZNKSt4listIfSaIfEE4sizeEv @320
    _ZNKSt4listIfSaIfEE5beginEv @321
    _ZNKSt4listIfSaIfEE5emptyEv @322
    _ZNKSt4listIiSaIiEE13get_allocatorEv @323
    _ZNKSt4listIiSaIiEE3endEv @324
    _ZNKSt4listIiSaIiEE4sizeEv @325
    _ZNKSt4listIiSaIiEE5beginEv @326
    _ZNKSt4listIiSaIiEE5emptyEv @327
    _ZNSaI6BezierEC1ISt10_List_nodeIS_EEERKSaIT_E @328
    _ZNSaI6BezierED1Ev @329
    _ZNSaISt10_List_nodeI13BezierComplexEEC2ERKS2_ @330
    _ZNSaISt10_List_nodeI13BezierComplexEEC2Ev @331
    _ZNSaISt10_List_nodeI13BezierComplexEED2Ev @332
    _ZNSaISt10_List_nodeI5PointEEC2ERKS2_ @333
    _ZNSaISt10_List_nodeI5PointEEC2Ev @334
    _ZNSaISt10_List_nodeI5PointEED2Ev @335
    _ZNSaISt10_List_nodeI6BezierEEC1IS0_EERKSaIT_E @336
    _ZNSaISt10_List_nodeI6BezierEEC2ERKS2_ @337
    _ZNSaISt10_List_nodeI6BezierEEC2Ev @338
    _ZNSaISt10_List_nodeI6BezierEED1Ev @339
    _ZNSaISt10_List_nodeI6BezierEED2Ev @340
    _ZNSaISt10_List_nodeIN4Glib7ustringEEEC2Ev @341
    _ZNSaISt10_List_nodeIN4Glib7ustringEEED2Ev @342
    _ZNSaISt10_List_nodeIN4sigc9slot_baseEEED2Ev @343
    _ZNSaISt10_List_nodeISt10shared_ptrI12MeasureValueEEEC2Ev @344
    _ZNSaISt10_List_nodeISt10shared_ptrI12MeasureValueEEED2Ev @345
    _ZNSaISt10_List_nodeISt10shared_ptrI8LandmarkEEEC2Ev @346
    _ZNSaISt10_List_nodeISt10shared_ptrI8LandmarkEEED2Ev @347
    _ZNSaISt10_List_nodeIfEEC1IfEERKSaIT_E @348
    _ZNSaISt10_List_nodeIfEEC2ERKS1_ @349
    _ZNSaISt10_List_nodeIfEEC2Ev @350
    _ZNSaISt10_List_nodeIfEED1Ev @351
    _ZNSaISt10_List_nodeIfEED2Ev @352
    _ZNSaISt10_List_nodeIiEEC1IiEERKSaIT_E @353
    _ZNSaISt10_List_nodeIiEEC2ERKS1_ @354
    _ZNSaISt10_List_nodeIiEEC2Ev @355
    _ZNSaISt10_List_nodeIiEED1Ev @356
    _ZNSaISt10_List_nodeIiEED2Ev @357
    _ZNSaIfEC1ISt10_List_nodeIfEEERKSaIT_E @358
    _ZNSaIfED1Ev @359
    _ZNSaIiEC1ISt10_List_nodeIiEEERKSaIT_E @360
    _ZNSaIiED1Ev @361
    _ZNSt10_List_baseI13BezierComplexSaIS0_EE10_List_implC1ERKSaISt10_List_nodeIS0_EE @362
    _ZNSt10_List_baseI13BezierComplexSaIS0_EE10_List_implC1Ev @363
    _ZNSt10_List_baseI13BezierComplexSaIS0_EE10_List_implD1Ev @364
    _ZNSt10_List_baseI13BezierComplexSaIS0_EE11_M_get_nodeEv @365
    _ZNSt10_List_baseI13BezierComplexSaIS0_EE11_M_put_nodeEPSt10_List_nodeIS0_E @366
    _ZNSt10_List_baseI13BezierComplexSaIS0_EE21_M_get_Node_allocatorEv @367
    _ZNSt10_List_baseI13BezierComplexSaIS0_EE7_M_initEv @368
    _ZNSt10_List_baseI13BezierComplexSaIS0_EE8_M_clearEv @369
    _ZNSt10_List_baseI13BezierComplexSaIS0_EEC2ERKSaISt10_List_nodeIS0_EE @370
    _ZNSt10_List_baseI13BezierComplexSaIS0_EEC2Ev @371
    _ZNSt10_List_baseI13BezierComplexSaIS0_EED2Ev @372
    _ZNSt10_List_baseI13PatternObjectSaIS0_EE11_M_get_nodeEv @373
    _ZNSt10_List_baseI13PatternObjectSaIS0_EE11_M_put_nodeEPSt10_List_nodeIS0_E @374
    _ZNSt10_List_baseI13PatternObjectSaIS0_EE21_M_get_Node_allocatorEv @375
    _ZNSt10_List_baseI5PointSaIS0_EE10_List_implC1ERKSaISt10_List_nodeIS0_EE @376
    _ZNSt10_List_baseI5PointSaIS0_EE10_List_implC1Ev @377
    _ZNSt10_List_baseI5PointSaIS0_EE10_List_implD1Ev @378
    _ZNSt10_List_baseI5PointSaIS0_EE11_M_get_nodeEv @379
    _ZNSt10_List_baseI5PointSaIS0_EE11_M_put_nodeEPSt10_List_nodeIS0_E @380
    _ZNSt10_List_baseI5PointSaIS0_EE21_M_get_Node_allocatorEv @381
    _ZNSt10_List_baseI5PointSaIS0_EE7_M_initEv @382
    _ZNSt10_List_baseI5PointSaIS0_EE8_M_clearEv @383
    _ZNSt10_List_baseI5PointSaIS0_EEC2ERKSaISt10_List_nodeIS0_EE @384
    _ZNSt10_List_baseI5PointSaIS0_EEC2Ev @385
    _ZNSt10_List_baseI5PointSaIS0_EED2Ev @386
    _ZNSt10_List_baseI6BezierSaIS0_EE10_List_implC1ERKSaISt10_List_nodeIS0_EE @387
    _ZNSt10_List_baseI6BezierSaIS0_EE10_List_implC1Ev @388
    _ZNSt10_List_baseI6BezierSaIS0_EE10_List_implD1Ev @389
    _ZNSt10_List_baseI6BezierSaIS0_EE11_M_get_nodeEv @390
    _ZNSt10_List_baseI6BezierSaIS0_EE11_M_put_nodeEPSt10_List_nodeIS0_E @391
    _ZNSt10_List_baseI6BezierSaIS0_EE21_M_get_Node_allocatorEv @392
    _ZNSt10_List_baseI6BezierSaIS0_EE7_M_initEv @393
    _ZNSt10_List_baseI6BezierSaIS0_EE8_M_clearEv @394
    _ZNSt10_List_baseI6BezierSaIS0_EEC2ERKSaISt10_List_nodeIS0_EE @395
    _ZNSt10_List_baseI6BezierSaIS0_EEC2Ev @396
    _ZNSt10_List_baseI6BezierSaIS0_EED2Ev @397
    _ZNSt10_List_baseIN4Glib7ustringESaIS1_EE10_List_implC1Ev @398
    _ZNSt10_List_baseIN4Glib7ustringESaIS1_EE10_List_implD1Ev @399
    _ZNSt10_List_baseIN4Glib7ustringESaIS1_EE11_M_get_nodeEv @400
    _ZNSt10_List_baseIN4Glib7ustringESaIS1_EE11_M_put_nodeEPSt10_List_nodeIS1_E @401
    _ZNSt10_List_baseIN4Glib7ustringESaIS1_EE21_M_get_Node_allocatorEv @402
    _ZNSt10_List_baseIN4Glib7ustringESaIS1_EE7_M_initEv @403
    _ZNSt10_List_baseIN4Glib7ustringESaIS1_EE8_M_clearEv @404
    _ZNSt10_List_baseIN4Glib7ustringESaIS1_EEC2Ev @405
    _ZNSt10_List_baseIN4Glib7ustringESaIS1_EED2Ev @406
    _ZNSt10_List_baseIN4sigc9slot_baseESaIS1_EE10_List_implD1Ev @407
    _ZNSt10_List_baseIN4sigc9slot_baseESaIS1_EE11_M_get_nodeEv @408
    _ZNSt10_List_baseIN4sigc9slot_baseESaIS1_EE11_M_put_nodeEPSt10_List_nodeIS1_E @409
    _ZNSt10_List_baseIN4sigc9slot_baseESaIS1_EE21_M_get_Node_allocatorEv @410
    _ZNSt10_List_baseIN4sigc9slot_baseESaIS1_EE8_M_clearEv @411
    _ZNSt10_List_baseIN4sigc9slot_baseESaIS1_EED2Ev @412
    _ZNSt10_List_baseISt10shared_ptrI12MeasureValueESaIS2_EE10_List_implC1Ev @413
    _ZNSt10_List_baseISt10shared_ptrI12MeasureValueESaIS2_EE10_List_implD1Ev @414
    _ZNSt10_List_baseISt10shared_ptrI12MeasureValueESaIS2_EE11_M_put_nodeEPSt10_List_nodeIS2_E @415
    _ZNSt10_List_baseISt10shared_ptrI12MeasureValueESaIS2_EE21_M_get_Node_allocatorEv @416
    _ZNSt10_List_baseISt10shared_ptrI12MeasureValueESaIS2_EE7_M_initEv @417
    _ZNSt10_List_baseISt10shared_ptrI12MeasureValueESaIS2_EE8_M_clearEv @418
    _ZNSt10_List_baseISt10shared_ptrI12MeasureValueESaIS2_EEC2Ev @419
    _ZNSt10_List_baseISt10shared_ptrI12MeasureValueESaIS2_EED2Ev @420
    _ZNSt10_List_baseISt10shared_ptrI8LandmarkESaIS2_EE10_List_implC1Ev @421
    _ZNSt10_List_baseISt10shared_ptrI8LandmarkESaIS2_EE10_List_implD1Ev @422
    _ZNSt10_List_baseISt10shared_ptrI8LandmarkESaIS2_EE11_M_get_nodeEv @423
    _ZNSt10_List_baseISt10shared_ptrI8LandmarkESaIS2_EE11_M_put_nodeEPSt10_List_nodeIS2_E @424
    _ZNSt10_List_baseISt10shared_ptrI8LandmarkESaIS2_EE21_M_get_Node_allocatorEv @425
    _ZNSt10_List_baseISt10shared_ptrI8LandmarkESaIS2_EE7_M_initEv @426
    _ZNSt10_List_baseISt10shared_ptrI8LandmarkESaIS2_EE8_M_clearEv @427
    _ZNSt10_List_baseISt10shared_ptrI8LandmarkESaIS2_EEC2Ev @428
    _ZNSt10_List_baseISt10shared_ptrI8LandmarkESaIS2_EED2Ev @429
    _ZNSt10_List_baseIfSaIfEE10_List_implC1ERKSaISt10_List_nodeIfEE @430
    _ZNSt10_List_baseIfSaIfEE10_List_implC1Ev @431
    _ZNSt10_List_baseIfSaIfEE10_List_implD1Ev @432
    _ZNSt10_List_baseIfSaIfEE11_M_get_nodeEv @433
    _ZNSt10_List_baseIfSaIfEE11_M_put_nodeEPSt10_List_nodeIfE @434
    _ZNSt10_List_baseIfSaIfEE21_M_get_Node_allocatorEv @435
    _ZNSt10_List_baseIfSaIfEE7_M_initEv @436
    _ZNSt10_List_baseIfSaIfEE8_M_clearEv @437
    _ZNSt10_List_baseIfSaIfEEC2ERKSaISt10_List_nodeIfEE @438
    _ZNSt10_List_baseIfSaIfEEC2Ev @439
    _ZNSt10_List_baseIfSaIfEED2Ev @440
    _ZNSt10_List_baseIiSaIiEE10_List_implC1ERKSaISt10_List_nodeIiEE @441
    _ZNSt10_List_baseIiSaIiEE10_List_implC1Ev @442
    _ZNSt10_List_baseIiSaIiEE10_List_implD1Ev @443
    _ZNSt10_List_baseIiSaIiEE11_M_get_nodeEv @444
    _ZNSt10_List_baseIiSaIiEE11_M_put_nodeEPSt10_List_nodeIiE @445
    _ZNSt10_List_baseIiSaIiEE21_M_get_Node_allocatorEv @446
    _ZNSt10_List_baseIiSaIiEE7_M_initEv @447
    _ZNSt10_List_baseIiSaIiEE8_M_clearEv @448
    _ZNSt10_List_baseIiSaIiEEC2ERKSaISt10_List_nodeIiEE @449
    _ZNSt10_List_baseIiSaIiEEC2Ev @450
    _ZNSt10_List_baseIiSaIiEED2Ev @451
    _ZNSt10_List_nodeI13BezierComplexEC1IIRKS0_EEEDpOT_ @452
    _ZNSt10_List_nodeI13BezierComplexED1Ev @453
    _ZNSt10_List_nodeI13PatternObjectEC1IIS0_EEEDpOT_ @454
    _ZNSt10_List_nodeI5PointEC1IIRKS0_EEEDpOT_ @455
    _ZNSt10_List_nodeI5PointED1Ev @456
    _ZNSt10_List_nodeI6BezierEC1IIEEEDpOT_ @457
    _ZNSt10_List_nodeI6BezierEC1IIRKS0_EEEDpOT_ @458
    _ZNSt10_List_nodeI6BezierEC1IIS0_EEEDpOT_ @459
    _ZNSt10_List_nodeI6BezierED1Ev @460
    _ZNSt10_List_nodeIN4Glib7ustringEEC1IIEEEDpOT_ @461
    _ZNSt10_List_nodeIN4Glib7ustringEEC1IIS1_EEEDpOT_ @462
    _ZNSt10_List_nodeIN4Glib7ustringEED1Ev @463
    _ZNSt10_List_nodeIN4sigc9slot_baseEEC1IIS1_EEEDpOT_ @464
    _ZNSt10_List_nodeIN4sigc9slot_baseEED1Ev @465
    _ZNSt10_List_nodeISt10shared_ptrI12MeasureValueEED1Ev @466
    _ZNSt10_List_nodeISt10shared_ptrI8LandmarkEEC1IIRKS2_EEEDpOT_ @467
    _ZNSt10_List_nodeISt10shared_ptrI8LandmarkEED1Ev @468
    _ZNSt10_List_nodeIfEC1IIRKfEEEDpOT_ @469
    _ZNSt10_List_nodeIiEC1IIRKiEEEDpOT_ @470
    _ZNSt10shared_ptrI12MeasureValueED1Ev @471
    _ZNSt10shared_ptrI15CurveDefinitionED1Ev @472
    _ZNSt10shared_ptrI8LandmarkEC1ERKS1_ @473
    _ZNSt10shared_ptrI8LandmarkED1Ev @474
    _ZNSt10shared_ptrIN5Cairo7ContextEEC1ERKS2_ @475
    _ZNSt10shared_ptrIN5Cairo7ContextEED1Ev @476
    _ZNSt11__alloc_neqISaISt10_List_nodeI6BezierEELb1EE8_S_do_itERKS3_S6_ @477
    _ZNSt11__alloc_neqISaISt10_List_nodeIfEELb1EE8_S_do_itERKS2_S5_ @478
    _ZNSt11__alloc_neqISaISt10_List_nodeIiEELb1EE8_S_do_itERKS2_S5_ @479
    _ZNSt12__alloc_swapISaISt10_List_nodeIfEELb1EE8_S_do_itERS2_S4_ @480
    _ZNSt12__alloc_swapISaISt10_List_nodeIiEELb1EE8_S_do_itERS2_S4_ @481
    _ZNSt12__shared_ptrI12MeasureValueLN9__gnu_cxx12_Lock_policyE1EED2Ev @482
    _ZNSt12__shared_ptrI15CurveDefinitionLN9__gnu_cxx12_Lock_policyE1EED2Ev @483
    _ZNSt12__shared_ptrI8LandmarkLN9__gnu_cxx12_Lock_policyE1EEC2ERKS3_ @484
    _ZNSt12__shared_ptrI8LandmarkLN9__gnu_cxx12_Lock_policyE1EED2Ev @485
    _ZNSt12__shared_ptrIN5Cairo7ContextELN9__gnu_cxx12_Lock_policyE1EEC2ERKS4_ @486
    _ZNSt12__shared_ptrIN5Cairo7ContextELN9__gnu_cxx12_Lock_policyE1EED2Ev @487
    _ZNSt14_List_iteratorI13BezierComplexEC1EPNSt8__detail15_List_node_baseE @488
    _ZNSt14_List_iteratorI13BezierComplexEppEi @489
    _ZNSt14_List_iteratorI13PatternObjectEC1EPNSt8__detail15_List_node_baseE @490
    _ZNSt14_List_iteratorI13PatternObjectEppEi @491
    _ZNSt14_List_iteratorI5PointEC1EPNSt8__detail15_List_node_baseE @492
    _ZNSt14_List_iteratorI5PointEppEi @493
    _ZNSt14_List_iteratorI6BezierEC1EPNSt8__detail15_List_node_baseE @494
    _ZNSt14_List_iteratorI6BezierEppEi @495
    _ZNSt14_List_iteratorI6BezierEppEv @496
    _ZNSt14_List_iteratorIN4Glib7ustringEEC1EPNSt8__detail15_List_node_baseE @497
    _ZNSt14_List_iteratorIN4sigc9slot_baseEEC1EPNSt8__detail15_List_node_baseE @498
    _ZNSt14_List_iteratorIN4sigc9slot_baseEEC1Ev @499
    _ZNSt14_List_iteratorISt10shared_ptrI8LandmarkEEC1EPNSt8__detail15_List_node_baseE @500
    _ZNSt14_List_iteratorISt10shared_ptrI8LandmarkEEppEi @501
    _ZNSt14_List_iteratorIfEC1EPNSt8__detail15_List_node_baseE @502
    _ZNSt14_List_iteratorIfEppEv @503
    _ZNSt14_List_iteratorIiEC1EPNSt8__detail15_List_node_baseE @504
    _ZNSt14_List_iteratorIiEppEv @505
    _ZNSt14__shared_countILN9__gnu_cxx12_Lock_policyE1EEC1ERKS2_ @506
    _ZNSt14__shared_countILN9__gnu_cxx12_Lock_policyE1EED1Ev @507
    _ZNSt14numeric_limitsIfE3maxEv @508
    _ZNSt16_Sp_counted_baseILN9__gnu_cxx12_Lock_policyE1EE10_M_releaseEv @509
    _ZNSt16_Sp_counted_baseILN9__gnu_cxx12_Lock_policyE1EE15_M_add_ref_copyEv @510
    _ZNSt20_List_const_iteratorI13BezierComplexEC1EPKNSt8__detail15_List_node_baseE @511
    _ZNSt20_List_const_iteratorI13BezierComplexEppEv @512
    _ZNSt20_List_const_iteratorI5PointEC1EPKNSt8__detail15_List_node_baseE @513
    _ZNSt20_List_const_iteratorI5PointEppEv @514
    _ZNSt20_List_const_iteratorI6BezierEC1EPKNSt8__detail15_List_node_baseE @515
    _ZNSt20_List_const_iteratorI6BezierEppEv @516
    _ZNSt20_List_const_iteratorIN4sigc9slot_baseEEC1ERKSt14_List_iteratorIS1_E @517
    _ZNSt20_List_const_iteratorIN4sigc9slot_baseEEppEv @518
    _ZNSt20_List_const_iteratorIfEC1EPKNSt8__detail15_List_node_baseE @519
    _ZNSt20_List_const_iteratorIfEppEv @520
    _ZNSt20_List_const_iteratorIiEC1EPKNSt8__detail15_List_node_baseE @521
    _ZNSt20_List_const_iteratorIiEppEv @522
    _ZNSt4listI13BezierComplexSaIS0_EE14_M_create_nodeIIRKS0_EEEPSt10_List_nodeIS0_EDpOT_ @523
    _ZNSt4listI13BezierComplexSaIS0_EE22_M_initialize_dispatchISt20_List_const_iteratorIS0_EEEvT_S6_St12__false_type @524
    _ZNSt4listI13BezierComplexSaIS0_EE3endEv @525
    _ZNSt4listI13BezierComplexSaIS0_EE5beginEv @526
    _ZNSt4listI13BezierComplexSaIS0_EE9_M_insertIIRKS0_EEEvSt14_List_iteratorIS0_EDpOT_ @527
    _ZNSt4listI13BezierComplexSaIS0_EE9push_backERKS0_ @528
    _ZNSt4listI13BezierComplexSaIS0_EEC1ERKS2_ @529
    _ZNSt4listI13BezierComplexSaIS0_EEC1Ev @530
    _ZNSt4listI13BezierComplexSaIS0_EED1Ev @531
    _ZNSt4listI13PatternObjectSaIS0_EE14_M_create_nodeIIS0_EEEPSt10_List_nodeIS0_EDpOT_ @532
    _ZNSt4listI13PatternObjectSaIS0_EE3endEv @533
    _ZNSt4listI13PatternObjectSaIS0_EE5beginEv @534
    _ZNSt4listI13PatternObjectSaIS0_EE9_M_insertIIS0_EEEvSt14_List_iteratorIS0_EDpOT_ @535
    _ZNSt4listI13PatternObjectSaIS0_EE9push_backEOS0_ @536
    _ZNSt4listI5PointSaIS0_EE14_M_create_nodeIIRKS0_EEEPSt10_List_nodeIS0_EDpOT_ @537
    _ZNSt4listI5PointSaIS0_EE22_M_initialize_dispatchISt20_List_const_iteratorIS0_EEEvT_S6_St12__false_type @538
    _ZNSt4listI5PointSaIS0_EE3endEv @539
    _ZNSt4listI5PointSaIS0_EE5beginEv @540
    _ZNSt4listI5PointSaIS0_EE9_M_insertIIRKS0_EEEvSt14_List_iteratorIS0_EDpOT_ @541
    _ZNSt4listI5PointSaIS0_EE9push_backERKS0_ @542
    _ZNSt4listI5PointSaIS0_EEC1ERKS2_ @543
    _ZNSt4listI5PointSaIS0_EEC1Ev @544
    _ZNSt4listI5PointSaIS0_EED1Ev @545
    _ZNSt4listI6BezierSaIS0_EE11_M_transferESt14_List_iteratorIS0_ES4_S4_ @546
    _ZNSt4listI6BezierSaIS0_EE12emplace_backIIEEEvDpOT_ @547
    _ZNSt4listI6BezierSaIS0_EE14_M_create_nodeIIEEEPSt10_List_nodeIS0_EDpOT_ @548
    _ZNSt4listI6BezierSaIS0_EE14_M_create_nodeIIRKS0_EEEPSt10_List_nodeIS0_EDpOT_ @549
    _ZNSt4listI6BezierSaIS0_EE14_M_create_nodeIIS0_EEEPSt10_List_nodeIS0_EDpOT_ @550
    _ZNSt4listI6BezierSaIS0_EE21_M_default_initializeEj @551
    _ZNSt4listI6BezierSaIS0_EE22_M_initialize_dispatchISt20_List_const_iteratorIS0_EEEvT_S6_St12__false_type @552
    _ZNSt4listI6BezierSaIS0_EE25_M_check_equal_allocatorsERS2_ @553
    _ZNSt4listI6BezierSaIS0_EE3endEv @554
    _ZNSt4listI6BezierSaIS0_EE5beginEv @555
    _ZNSt4listI6BezierSaIS0_EE5eraseESt14_List_iteratorIS0_E @556
    _ZNSt4listI6BezierSaIS0_EE5eraseESt14_List_iteratorIS0_ES4_ @557
    _ZNSt4listI6BezierSaIS0_EE6insertISt20_List_const_iteratorIS0_EEEvSt14_List_iteratorIS0_ET_S8_ @558
    _ZNSt4listI6BezierSaIS0_EE6spliceESt14_List_iteratorIS0_EOS2_ @559
    _ZNSt4listI6BezierSaIS0_EE6spliceESt14_List_iteratorIS0_ERS2_ @560
    _ZNSt4listI6BezierSaIS0_EE8_M_eraseESt14_List_iteratorIS0_E @561
    _ZNSt4listI6BezierSaIS0_EE9_M_insertIIEEEvSt14_List_iteratorIS0_EDpOT_ @562
    _ZNSt4listI6BezierSaIS0_EE9_M_insertIIRKS0_EEEvSt14_List_iteratorIS0_EDpOT_ @563
    _ZNSt4listI6BezierSaIS0_EE9_M_insertIIS0_EEEvSt14_List_iteratorIS0_EDpOT_ @564
    _ZNSt4listI6BezierSaIS0_EE9push_backEOS0_ @565
    _ZNSt4listI6BezierSaIS0_EE9push_backERKS0_ @566
    _ZNSt4listI6BezierSaIS0_EEC1ERKS2_ @567
    _ZNSt4listI6BezierSaIS0_EEC1Ej @568
    _ZNSt4listI6BezierSaIS0_EEC1Ev @569
    _ZNSt4listI6BezierSaIS0_EEC1ISt20_List_const_iteratorIS0_EEET_S6_RKS1_ @570
    _ZNSt4listI6BezierSaIS0_EED1Ev @571
    _ZNSt4listI6BezierSaIS0_EEaSERKS2_ @572
    _ZNSt4listIN4Glib7ustringESaIS1_EE12emplace_backIIEEEvDpOT_ @573
    _ZNSt4listIN4Glib7ustringESaIS1_EE14_M_create_nodeIIEEEPSt10_List_nodeIS1_EDpOT_ @574
    _ZNSt4listIN4Glib7ustringESaIS1_EE14_M_create_nodeIIS1_EEEPSt10_List_nodeIS1_EDpOT_ @575
    _ZNSt4listIN4Glib7ustringESaIS1_EE21_M_default_initializeEj @576
    _ZNSt4listIN4Glib7ustringESaIS1_EE3endEv @577
    _ZNSt4listIN4Glib7ustringESaIS1_EE9_M_insertIIEEEvSt14_List_iteratorIS1_EDpOT_ @578
    _ZNSt4listIN4Glib7ustringESaIS1_EE9_M_insertIIS1_EEEvSt14_List_iteratorIS1_EDpOT_ @579
    _ZNSt4listIN4Glib7ustringESaIS1_EE9push_backEOS1_ @580
    _ZNSt4listIN4Glib7ustringESaIS1_EEC1Ej @581
    _ZNSt4listIN4Glib7ustringESaIS1_EED1Ev @582
    _ZNSt4listIN4sigc9slot_baseESaIS1_EE14_M_create_nodeIIS1_EEEPSt10_List_nodeIS1_EDpOT_ @583
    _ZNSt4listIN4sigc9slot_baseESaIS1_EE3endEv @584
    _ZNSt4listIN4sigc9slot_baseESaIS1_EE5beginEv @585
    _ZNSt4listIN4sigc9slot_baseESaIS1_EE5eraseESt14_List_iteratorIS1_E @586
    _ZNSt4listIN4sigc9slot_baseESaIS1_EE6insertESt14_List_iteratorIS1_EOS1_ @587
    _ZNSt4listIN4sigc9slot_baseESaIS1_EE7emplaceIIS1_EEESt14_List_iteratorIS1_ES6_DpOT_ @588
    _ZNSt4listIN4sigc9slot_baseESaIS1_EE8_M_eraseESt14_List_iteratorIS1_E @589
    _ZNSt4listIN4sigc9slot_baseESaIS1_EED1Ev @590
    _ZNSt4listISt10shared_ptrI12MeasureValueESaIS2_EEC1Ev @591
    _ZNSt4listISt10shared_ptrI12MeasureValueESaIS2_EED1Ev @592
    _ZNSt4listISt10shared_ptrI8LandmarkESaIS2_EE14_M_create_nodeIIRKS2_EEEPSt10_List_nodeIS2_EDpOT_ @593
    _ZNSt4listISt10shared_ptrI8LandmarkESaIS2_EE3endEv @594
    _ZNSt4listISt10shared_ptrI8LandmarkESaIS2_EE5beginEv @595
    _ZNSt4listISt10shared_ptrI8LandmarkESaIS2_EE9_M_insertIIRKS2_EEEvSt14_List_iteratorIS2_EDpOT_ @596
    _ZNSt4listISt10shared_ptrI8LandmarkESaIS2_EE9push_backERKS2_ @597
    _ZNSt4listISt10shared_ptrI8LandmarkESaIS2_EEC1Ev @598
    _ZNSt4listISt10shared_ptrI8LandmarkESaIS2_EED1Ev @599
    _ZNSt4listIfSaIfEE11_M_transferESt14_List_iteratorIfES3_S3_ @600
    _ZNSt4listIfSaIfEE14_M_create_nodeIIRKfEEEPSt10_List_nodeIfEDpOT_ @601
    _ZNSt4listIfSaIfEE22_M_initialize_dispatchISt20_List_const_iteratorIfEEEvT_S5_St12__false_type @602
    _ZNSt4listIfSaIfEE25_M_check_equal_allocatorsERS1_ @603
    _ZNSt4listIfSaIfEE3endEv @604
    _ZNSt4listIfSaIfEE4swapERS1_ @605
    _ZNSt4listIfSaIfEE5beginEv @606
    _ZNSt4listIfSaIfEE5clearEv @607
    _ZNSt4listIfSaIfEE5eraseESt14_List_iteratorIfE @608
    _ZNSt4listIfSaIfEE5eraseESt14_List_iteratorIfES3_ @609
    _ZNSt4listIfSaIfEE6insertISt20_List_const_iteratorIfEEEvSt14_List_iteratorIfET_S7_ @610
    _ZNSt4listIfSaIfEE6spliceESt14_List_iteratorIfEOS1_ @611
    _ZNSt4listIfSaIfEE6spliceESt14_List_iteratorIfERS1_ @612
    _ZNSt4listIfSaIfEE8_M_eraseESt14_List_iteratorIfE @613
    _ZNSt4listIfSaIfEE9_M_insertIIRKfEEEvSt14_List_iteratorIfEDpOT_ @614
    _ZNSt4listIfSaIfEE9push_backERKf @615
    _ZNSt4listIfSaIfEEC1Ev @616
    _ZNSt4listIfSaIfEEC1ISt20_List_const_iteratorIfEEET_S5_RKS0_ @617
    _ZNSt4listIfSaIfEED1Ev @618
    _ZNSt4listIfSaIfEEaSEOS1_ @619
    _ZNSt4listIfSaIfEEaSERKS1_ @620
    _ZNSt4listIiSaIiEE11_M_transferESt14_List_iteratorIiES3_S3_ @621
    _ZNSt4listIiSaIiEE14_M_create_nodeIIRKiEEEPSt10_List_nodeIiEDpOT_ @622
    _ZNSt4listIiSaIiEE22_M_initialize_dispatchISt20_List_const_iteratorIiEEEvT_S5_St12__false_type @623
    _ZNSt4listIiSaIiEE25_M_check_equal_allocatorsERS1_ @624
    _ZNSt4listIiSaIiEE3endEv @625
    _ZNSt4listIiSaIiEE4swapERS1_ @626
    _ZNSt4listIiSaIiEE5beginEv @627
    _ZNSt4listIiSaIiEE5clearEv @628
    _ZNSt4listIiSaIiEE5eraseESt14_List_iteratorIiE @629
    _ZNSt4listIiSaIiEE5eraseESt14_List_iteratorIiES3_ @630
    _ZNSt4listIiSaIiEE6insertISt20_List_const_iteratorIiEEEvSt14_List_iteratorIiET_S7_ @631
    _ZNSt4listIiSaIiEE6spliceESt14_List_iteratorIiEOS1_ @632
    _ZNSt4listIiSaIiEE6spliceESt14_List_iteratorIiERS1_ @633
    _ZNSt4listIiSaIiEE8_M_eraseESt14_List_iteratorIiE @634
    _ZNSt4listIiSaIiEE9_M_insertIIRKiEEEvSt14_List_iteratorIiEDpOT_ @635
    _ZNSt4listIiSaIiEE9push_backERKi @636
    _ZNSt4listIiSaIiEEC1Ev @637
    _ZNSt4listIiSaIiEEC1ISt20_List_const_iteratorIiEEET_S5_RKS0_ @638
    _ZNSt4listIiSaIiEED1Ev @639
    _ZNSt4listIiSaIiEEaSEOS1_ @640
    _ZNSt4listIiSaIiEEaSERKS1_ @641
    _ZNSt5arrayI5PointLj4EEC1ERKS1_ @642
    _ZNSt5arrayI5PointLj4EEC1Ev @643
    _ZNSt5arrayI5PointLj4EED1Ev @644
    _ZNSt5arrayI5PointLj4EEaSERKS1_ @645
    _ZNSt5arrayI5PointLj4EEixEj @646
    _ZSt11__addressofI13BezierComplexEPT_RS1_ @647
    _ZSt11__addressofI13PatternObjectEPT_RS1_ @648
    _ZSt11__addressofI5PointEPT_RS1_ @649
    _ZSt11__addressofIKN4sigc9slot_baseEEPT_RS3_ @650
    _ZSt3powff @651
    _ZSt4moveIR13PatternObjectEONSt16remove_referenceIT_E4typeEOS3_ @652
    _ZSt4moveIR6BezierEONSt16remove_referenceIT_E4typeEOS3_ @653
    _ZSt4moveIRN4Glib7ustringEEONSt16remove_referenceIT_E4typeEOS4_ @654
    _ZSt4moveIRN4sigc9slot_baseEEONSt16remove_referenceIT_E4typeEOS4_ @655
    _ZSt4moveIRSt4listI6BezierSaIS1_EEEONSt16remove_referenceIT_E4typeEOS6_ @656
    _ZSt4moveIRSt4listIfSaIfEEEONSt16remove_referenceIT_E4typeEOS5_ @657
    _ZSt4moveIRSt4listIiSaIiEEEONSt16remove_referenceIT_E4typeEOS5_ @658
    _ZSt4moveIRjEONSt16remove_referenceIT_E4typeEOS2_ @659
    _ZSt4swapIjEvRT_S1_ @660
    _ZSt7forwardI13PatternObjectEOT_RNSt16remove_referenceIS1_E4typeE @661
    _ZSt7forwardI6BezierEOT_RNSt16remove_referenceIS1_E4typeE @662
    _ZSt7forwardIN4Glib7ustringEEOT_RNSt16remove_referenceIS2_E4typeE @663
    _ZSt7forwardIN4sigc9slot_baseEEOT_RNSt16remove_referenceIS2_E4typeE @664
    _ZSt7forwardIRK13BezierComplexEOT_RNSt16remove_referenceIS3_E4typeE @665
    _ZSt7forwardIRK5PointEOT_RNSt16remove_referenceIS3_E4typeE @666
    _ZSt7forwardIRK6BezierEOT_RNSt16remove_referenceIS3_E4typeE @667
    _ZSt7forwardIRKSt10shared_ptrI8LandmarkEEOT_RNSt16remove_referenceIS5_E4typeE @668
    _ZSt7forwardIRKfEOT_RNSt16remove_referenceIS2_E4typeE @669
    _ZSt7forwardIRKiEOT_RNSt16remove_referenceIS2_E4typeE @670
    _ZTI11DrawOptions @671 DATA
    _ZTI12MeasureValue @672 DATA
    _ZTI12PatternError @673 DATA
    _ZTI13BezierComplex @674 DATA
    _ZTI13PaperSettings @675 DATA
    _ZTI13PatternObject @676 DATA
    _ZTI14PartDefinition @677 DATA
    _ZTI15CurveDefinition @678 DATA
    _ZTI16BezierDefinition @679 DATA
    _ZTI16PatternParameter @680 DATA
    _ZTI17PatternDefinition @681 DATA
    _ZTI19IntPatternParameter @682 DATA
    _ZTI21FloatPatternParameter @683 DATA
    _ZTI21PatternParameterValue @684 DATA
    _ZTI4Part @685 DATA
    _ZTI4Size @686 DATA
    _ZTI4User @687 DATA
    _ZTI7Pattern @688 DATA
    _ZTI8Landmark @689 DATA
    _ZTI8Measures @690 DATA
    _ZTS11DrawOptions @691 DATA
    _ZTS12MeasureValue @692 DATA
    _ZTS12PatternError @693 DATA
    _ZTS13BezierComplex @694 DATA
    _ZTS13PaperSettings @695 DATA
    _ZTS13PatternObject @696 DATA
    _ZTS14PartDefinition @697 DATA
    _ZTS15CurveDefinition @698 DATA
    _ZTS16BezierDefinition @699 DATA
    _ZTS16PatternParameter @700 DATA
    _ZTS17PatternDefinition @701 DATA
    _ZTS19IntPatternParameter @702 DATA
    _ZTS21FloatPatternParameter @703 DATA
    _ZTS21PatternParameterValue @704 DATA
    _ZTS4Part @705 DATA
    _ZTS4Size @706 DATA
    _ZTS4User @707 DATA
    _ZTS7Pattern @708 DATA
    _ZTS8Landmark @709 DATA
    _ZTS8Measures @710 DATA
    _ZTV11DrawOptions @711 DATA
    _ZTV12MeasureValue @712 DATA
    _ZTV12PatternError @713 DATA
    _ZTV13BezierComplex @714 DATA
    _ZTV13PaperSettings @715 DATA
    _ZTV13PatternObject @716 DATA
    _ZTV14PartDefinition @717 DATA
    _ZTV15CurveDefinition @718 DATA
    _ZTV16BezierDefinition @719 DATA
    _ZTV16PatternParameter @720 DATA
    _ZTV17PatternDefinition @721 DATA
    _ZTV19IntPatternParameter @722 DATA
    _ZTV21FloatPatternParameter @723 DATA
    _ZTV21PatternParameterValue @724 DATA
    _ZTV4Part @725 DATA
    _ZTV4Size @726 DATA
    _ZTV4User @727 DATA
    _ZTV7Pattern @728 DATA
    _ZTV8Landmark @729 DATA
    _ZTV8Measures @730 DATA
    _ZdlPvS_ @731
    _ZnwjPv @732
